Certificate:
    Data:
        Version: 3 (0x2)
        Serial Number: 1 (0x1)
        Signature Algorithm: sha256WithRSAEncryption
        Issuer: CN=devcert
        Validity
            Not Before: Apr 21 02:08:58 2020 GMT
            Not After : Jul 25 02:08:58 2022 GMT
        Subject: CN=localhost
        Subject Public Key Info:
            Public Key Algorithm: rsaEncryption
                RSA Public-Key: (2048 bit)
                Modulus:
                    00:ad:26:fe:35:86:98:81:04:59:1d:88:81:c8:c1:
                    b4:5a:51:29:cf:5c:d7:f2:0a:d9:69:e4:c1:25:c7:
                    41:7a:39:b3:b6:d8:ff:dc:5e:a0:89:c8:68:d4:73:
                    7d:be:c5:41:d9:f4:95:d9:4d:50:7b:ad:24:c8:f6:
                    a8:56:3f:9e:ff:26:47:71:58:ac:58:76:19:06:76:
                    f0:4e:62:00:17:c4:2d:3a:cf:0d:94:40:f1:d6:3c:
                    f9:35:ad:ab:2f:18:32:79:b4:00:86:45:d9:f4:60:
                    20:d0:b0:2d:6b:8d:67:1b:b3:92:92:c8:39:e8:84:
                    ef:be:85:f0:62:6a:16:c2:de:a8:fe:8b:33:6e:17:
                    de:fd:a8:82:b7:52:55:c4:f9:92:c3:23:11:d7:74:
                    69:6b:95:9e:1b:d3:fc:8b:4e:65:8e:56:21:d2:1a:
                    fd:16:0c:28:2c:94:1c:fa:9a:15:25:6e:7a:0b:06:
                    4d:f4:db:cb:e4:4d:1c:ba:4d:8f:0a:70:1e:39:2f:
                    99:15:e8:9c:74:1f:05:aa:2f:cf:77:88:c3:20:b5:
                    68:81:25:32:12:af:e7:f9:1b:bd:3a:70:4c:36:88:
                    9c:db:c3:04:b5:92:b6:e9:b2:d6:63:0c:e7:6f:5a:
                    3b:fc:a7:ff:4d:ba:40:e0:6b:2d:94:79:2f:eb:5a:
                    af:35
                Exponent: 65537 (0x10001)
        X509v3 extensions:
            X509v3 Basic Constraints: critical
                CA:FALSE
            X509v3 Subject Key Identifier: 
                C5:A1:36:BF:9B:8B:D7:F4:48:BA:62:B5:D0:11:4B:EE:45:24:D3:AF
            X509v3 Authority Key Identifier: 
                keyid:0D:7F:0A:B5:55:9C:63:A1:27:01:B0:C7:54:DC:64:36:69:3F:32:16
                DirName:/CN=devcert
                serial:1F:D7:26:09:D0:DF:93:AA:3E:22:07:8F:01:25:3B:4C:30:85:5B:02

            X509v3 Key Usage: critical
                Digital Signature, Key Encipherment
            X509v3 Extended Key Usage: 
                TLS Web Server Authentication
            X509v3 Subject Alternative Name: 
                DNS:localhost, DNS:*.localhost
    Signature Algorithm: sha256WithRSAEncryption
         0e:65:b9:e0:be:1c:2c:5b:5a:21:46:65:19:cb:a0:dc:06:10:
         e0:41:f1:02:7a:73:fe:38:a9:90:32:c1:46:26:6f:05:19:24:
         1b:44:85:92:e2:d3:9f:7b:2b:c3:0e:07:65:bd:ec:6c:27:d7:
         b1:a0:af:d2:b7:5a:62:87:eb:76:b5:3a:a8:16:03:7e:d4:8e:
         9e:b2:60:eb:be:bc:83:7b:d5:6c:d9:1d:8e:dd:76:c6:46:67:
         59:82:87:c9:2e:4c:2b:fc:c9:62:84:a1:a8:1b:b1:3d:71:27:
         30:84:1d:01:12:30:aa:88:86:ed:a3:40:70:08:4d:fc:63:ec:
         f7:76:70:aa:89:a4:87:3a:3f:9f:8f:6e:9a:69:63:54:6b:22:
         21:39:44:37:40:14:c0:a0:f2:93:8b:4c:3e:f6:8c:8f:66:f8:
         f7:63:e5:cf:20:ea:ba:be:46:f1:cb:e4:9a:bc:30:9b:e6:f0:
         39:07:6a:3a:90:b1:eb:2b:a7:59:f6:ef:81:f8:ee:c5:61:fa:
         3e:d1:a5:75:18:59:19:01:bd:74:bf:b7:53:2a:40:a2:83:f5:
         d1:89:45:9d:e7:1f:ca:5e:a6:10:25:4e:8e:4d:f3:15:ac:67:
         d5:a0:ea:bb:bf:c6:63:3e:de:6e:cf:c6:f3:d0:ab:b6:df:ae:
         64:1b:68:f3
-----BEGIN CERTIFICATE-----
MIIDaTCCAlGgAwIBAgIBATANBgkqhkiG9w0BAQsFADASMRAwDgYDVQQDDAdkZXZj
ZXJ0MB4XDTIwMDQyMTAyMDg1OFoXDTIyMDcyNTAyMDg1OFowFDESMBAGA1UEAwwJ
bG9jYWxob3N0MIIBIjANBgkqhkiG9w0BAQEFAAOCAQ8AMIIBCgKCAQEArSb+NYaY
gQRZHYiByMG0WlEpz1zX8grZaeTBJcdBejmzttj/3F6gicho1HN9vsVB2fSV2U1Q
e60kyPaoVj+e/yZHcVisWHYZBnbwTmIAF8QtOs8NlEDx1jz5Na2rLxgyebQAhkXZ
9GAg0LAta41nG7OSksg56ITvvoXwYmoWwt6o/oszbhfe/aiCt1JVxPmSwyMR13Rp
a5WeG9P8i05ljlYh0hr9FgwoLJQc+poVJW56CwZN9NvL5E0cuk2PCnAeOS+ZFeic
dB8Fqi/Pd4jDILVogSUyEq/n+Ru9OnBMNoic28MEtZK26bLWYwznb1o7/Kf/TbpA
4GstlHkv61qvNQIDAQABo4HHMIHEMAwGA1UdEwEB/wQCMAAwHQYDVR0OBBYEFMWh
Nr+bi9f0SLpitdARS+5FJNOvME0GA1UdIwRGMESAFA1/CrVVnGOhJwGwx1TcZDZp
PzIWoRakFDASMRAwDgYDVQQDDAdkZXZjZXJ0ghQf1yYJ0N+Tqj4iB48BJTtMMIVb
AjAOBgNVHQ8BAf8EBAMCBaAwEwYDVR0lBAwwCgYIKwYBBQUHAwEwIQYDVR0RBBow
GIIJbG9jYWxob3N0ggsqLmxvY2FsaG9zdDANBgkqhkiG9w0BAQsFAAOCAQEADmW5
4L4cLFtaIUZlGcug3AYQ4EHxAnpz/jipkDLBRiZvBRkkG0SFkuLTn3srww4HZb3s
bCfXsaCv0rdaYofrdrU6qBYDftSOnrJg6768g3vVbNkdjt12xkZnWYKHyS5MK/zJ
YoShqBuxPXEnMIQdARIwqoiG7aNAcAhN/GPs93Zwqomkhzo/n49ummljVGsiITlE
N0AUwKDyk4tMPvaMj2b492PlzyDqur5G8cvkmrwwm+bwOQdqOpCx6yunWfbvgfju
xWH6PtGldRhZGQG9dL+3UypAooP10YlFnecfyl6mECVOjk3zFaxn1aDqu7/GYz7e
bs/G89Crtt+uZBto8w==
-----END CERTIFICATE-----
